target datalayout = "e-m:e-p270:32:32-p271:32:32-p272:64:64-i64:64-i128:128-f80:128-n8:16:32:64-S128"
target triple = "x86_64-pc-linux-gnu"

%struct.expert_field = type { i32, i32 }

@hf_uftp_destlist = internal global i32 0, align 4
@hf_uftp_dest = internal global i32 0, align 4
@hf_uftp_announce = internal global i32 0, align 4
@hf_uftp_announce_func = internal global i32 0, align 4
@hf_uftp_announce_flags = internal global i32 0, align 4
@hf_uftp_announce_destcount = internal global i32 0, align 4
@hf_uftp_announce_announce_int = internal global i32 0, align 4
@hf_uftp_announce_status_int = internal global i32 0, align 4
@hf_uftp_announce_register_int = internal global i32 0, align 4
@hf_uftp_announce_done_int = internal global i32 0, align 4
@hf_uftp_announce_announce_time = internal global i32 0, align 4
@hf_uftp_announce_status_time = internal global i32 0, align 4
@hf_uftp_announce_mtu = internal global i32 0, align 4
@hf_uftp_announce_privatemcast = internal global i32 0, align 4
@hf_uftp_announce_client_auth = internal global i32 0, align 4
@hf_uftp_announce_sigtype = internal global i32 0, align 4
@hf_uftp_announce_hashtype = internal global i32 0, align 4
@hf_uftp_announce_keytype = internal global i32 0, align 4
@hf_uftp_announce_keylen = internal global i32 0, align 4
@hf_uftp_announce_reserved = internal global i32 0, align 4
@hf_uftp_announce_keyexp = internal global i32 0, align 4
@hf_uftp_announce_rand1 = internal global i32 0, align 4
@hf_uftp_announce_keymod = internal global i32 0, align 4
@ett_uftp_announce = internal global i32 0, align 4
@ett_uftp_announce_flags = internal global i32 0, align 4
@ett_uftp_destlist = internal global i32 0, align 4
@ei_uftp_length_invalid = internal global %struct.expert_field zeroinitializer, align 4
@.str.289 = private unnamed_addr constant [19 x i8] c"Invalid length: %d\00", align 1
@.str.290 = private unnamed_addr constant [48 x i8] c"Invalid length, len = %d, keylen = %d, count=%d\00", align 1
@announce_flags = internal constant [5 x ptr] [ptr @hf_uftp_announce_flags_restart, ptr @hf_uftp_announce_flags_sync, ptr @hf_uftp_announce_flags_syncpreview, ptr @hf_uftp_announce_flags_reserved, ptr null], align 16

; Function Attrs: null_pointer_is_valid sspstrong uwtable
define internal void @dissect_uftp_announce(ptr noundef %0, ptr noundef %1, ptr noundef %2) #0 {
  %4 = alloca ptr, align 8
  %5 = alloca ptr, align 8
  %6 = alloca ptr, align 8
  %7 = alloca ptr, align 8
  %8 = alloca ptr, align 8
  %9 = alloca ptr, align 8
  %10 = alloca ptr, align 8
  %11 = alloca i32, align 4
  %12 = alloca i16, align 2
  %13 = alloca i16, align 2
  %14 = alloca i16, align 2
  %15 = alloca i32, align 4
  store ptr %0, ptr %4, align 8
  store ptr %1, ptr %5, align 8
  store ptr %2, ptr %6, align 8
  call void @llvm.lifetime.start.p0(i64 8, ptr %7) #3
  store ptr null, ptr %7, align 8
  call void @llvm.lifetime.start.p0(i64 8, ptr %8) #3
  store ptr null, ptr %8, align 8
  call void @llvm.lifetime.start.p0(i64 8, ptr %9) #3
  store ptr null, ptr %9, align 8
  call void @llvm.lifetime.start.p0(i64 8, ptr %10) #3
  store ptr null, ptr %10, align 8
  call void @llvm.lifetime.start.p0(i64 4, ptr %11) #3
  store i32 0, ptr %11, align 4
  call void @llvm.lifetime.start.p0(i64 2, ptr %12) #3
  call void @llvm.lifetime.start.p0(i64 2, ptr %13) #3
  call void @llvm.lifetime.start.p0(i64 2, ptr %14) #3
  %16 = load ptr, ptr %4, align 8
  %17 = call i32 @tvb_reported_length(ptr noundef %16)
  %18 = icmp ult i32 %17, 64
  br i1 %18, label %19, label %27

19:                                               ; preds = %3
  %20 = load ptr, ptr %6, align 8
  %21 = load ptr, ptr %5, align 8
  %22 = load ptr, ptr %4, align 8
  %23 = load i32, ptr %11, align 4
  %24 = load ptr, ptr %4, align 8
  %25 = call i32 @tvb_reported_length(ptr noundef %24)
  %26 = call ptr (ptr, ptr, ptr, ptr, i32, i32, ptr, ...) @proto_tree_add_expert_format(ptr noundef %20, ptr noundef %21, ptr noundef @ei_uftp_length_invalid, ptr noundef %22, i32 noundef %23, i32 noundef -1, ptr noundef @.str.289, i32 noundef %25)
  store i32 1, ptr %15, align 4
  br label %247

27:                                               ; preds = %3
  %28 = load ptr, ptr %4, align 8
  %29 = call zeroext i16 @tvb_get_ntohs(ptr noundef %28, i32 noundef 2)
  store i16 %29, ptr %12, align 2
  %30 = load ptr, ptr %4, align 8
  %31 = call zeroext i16 @tvb_get_ntohs(ptr noundef %30, i32 noundef 24)
  store i16 %31, ptr %13, align 2
  %32 = load ptr, ptr %4, align 8
  %33 = call i32 @tvb_reported_length(ptr noundef %32)
  %34 = load i16, ptr %13, align 2
  %35 = zext i16 %34 to i32
  %36 = add i32 64, %35
  %37 = load i16, ptr %12, align 2
  %38 = zext i16 %37 to i32
  %39 = mul i32 %38, 4
  %40 = add i32 %36, %39
  %41 = icmp slt i32 %33, %40
  br i1 %41, label %42, label %54

42:                                               ; preds = %27
  %43 = load ptr, ptr %6, align 8
  %44 = load ptr, ptr %5, align 8
  %45 = load ptr, ptr %4, align 8
  %46 = load i32, ptr %11, align 4
  %47 = load ptr, ptr %4, align 8
  %48 = call i32 @tvb_reported_length(ptr noundef %47)
  %49 = load i16, ptr %13, align 2
  %50 = zext i16 %49 to i32
  %51 = load i16, ptr %12, align 2
  %52 = zext i16 %51 to i32
  %53 = call ptr (ptr, ptr, ptr, ptr, i32, i32, ptr, ...) @proto_tree_add_expert_format(ptr noundef %43, ptr noundef %44, ptr noundef @ei_uftp_length_invalid, ptr noundef %45, i32 noundef %46, i32 noundef -1, ptr noundef @.str.290, i32 noundef %48, i32 noundef %50, i32 noundef %52)
  store i32 1, ptr %15, align 4
  br label %247

54:                                               ; preds = %27
  %55 = load ptr, ptr %6, align 8
  %56 = load i32, ptr @hf_uftp_announce, align 4
  %57 = load ptr, ptr %4, align 8
  %58 = load i32, ptr %11, align 4
  %59 = call ptr @proto_tree_add_item(ptr noundef %55, i32 noundef %56, ptr noundef %57, i32 noundef %58, i32 noundef -1, i32 noundef 0)
  store ptr %59, ptr %7, align 8
  %60 = load ptr, ptr %7, align 8
  %61 = load i32, ptr @ett_uftp_announce, align 4
  %62 = call ptr @proto_item_add_subtree(ptr noundef %60, i32 noundef %61)
  store ptr %62, ptr %9, align 8
  %63 = load ptr, ptr %9, align 8
  %64 = load i32, ptr @hf_uftp_announce_func, align 4
  %65 = load ptr, ptr %4, align 8
  %66 = load i32, ptr %11, align 4
  %67 = call ptr @proto_tree_add_item(ptr noundef %63, i32 noundef %64, ptr noundef %65, i32 noundef %66, i32 noundef 1, i32 noundef 0)
  %68 = load i32, ptr %11, align 4
  %69 = add i32 %68, 1
  store i32 %69, ptr %11, align 4
  %70 = load ptr, ptr %9, align 8
  %71 = load ptr, ptr %4, align 8
  %72 = load i32, ptr %11, align 4
  %73 = load i32, ptr @hf_uftp_announce_flags, align 4
  %74 = load i32, ptr @ett_uftp_announce_flags, align 4
  %75 = call ptr @proto_tree_add_bitmask(ptr noundef %70, ptr noundef %71, i32 noundef %72, i32 noundef %73, i32 noundef %74, ptr noundef @announce_flags, i32 noundef 0)
  %76 = load i32, ptr %11, align 4
  %77 = add i32 %76, 1
  store i32 %77, ptr %11, align 4
  %78 = load ptr, ptr %9, align 8
  %79 = load i32, ptr @hf_uftp_announce_destcount, align 4
  %80 = load ptr, ptr %4, align 8
  %81 = load i32, ptr %11, align 4
  %82 = call ptr @proto_tree_add_item(ptr noundef %78, i32 noundef %79, ptr noundef %80, i32 noundef %81, i32 noundef 2, i32 noundef 0)
  %83 = load i32, ptr %11, align 4
  %84 = add i32 %83, 2
  store i32 %84, ptr %11, align 4
  %85 = load ptr, ptr %9, align 8
  %86 = load i32, ptr @hf_uftp_announce_announce_int, align 4
  %87 = load ptr, ptr %4, align 8
  %88 = load i32, ptr %11, align 4
  %89 = call ptr @proto_tree_add_item(ptr noundef %85, i32 noundef %86, ptr noundef %87, i32 noundef %88, i32 noundef 2, i32 noundef 0)
  %90 = load i32, ptr %11, align 4
  %91 = add i32 %90, 2
  store i32 %91, ptr %11, align 4
  %92 = load ptr, ptr %9, align 8
  %93 = load i32, ptr @hf_uftp_announce_status_int, align 4
  %94 = load ptr, ptr %4, align 8
  %95 = load i32, ptr %11, align 4
  %96 = call ptr @proto_tree_add_item(ptr noundef %92, i32 noundef %93, ptr noundef %94, i32 noundef %95, i32 noundef 2, i32 noundef 0)
  %97 = load i32, ptr %11, align 4
  %98 = add i32 %97, 2
  store i32 %98, ptr %11, align 4
  %99 = load ptr, ptr %9, align 8
  %100 = load i32, ptr @hf_uftp_announce_register_int, align 4
  %101 = load ptr, ptr %4, align 8
  %102 = load i32, ptr %11, align 4
  %103 = call ptr @proto_tree_add_item(ptr noundef %99, i32 noundef %100, ptr noundef %101, i32 noundef %102, i32 noundef 2, i32 noundef 0)
  %104 = load i32, ptr %11, align 4
  %105 = add i32 %104, 2
  store i32 %105, ptr %11, align 4
  %106 = load ptr, ptr %9, align 8
  %107 = load i32, ptr @hf_uftp_announce_done_int, align 4
  %108 = load ptr, ptr %4, align 8
  %109 = load i32, ptr %11, align 4
  %110 = call ptr @proto_tree_add_item(ptr noundef %106, i32 noundef %107, ptr noundef %108, i32 noundef %109, i32 noundef 2, i32 noundef 0)
  %111 = load i32, ptr %11, align 4
  %112 = add i32 %111, 2
  store i32 %112, ptr %11, align 4
  %113 = load ptr, ptr %9, align 8
  %114 = load i32, ptr @hf_uftp_announce_announce_time, align 4
  %115 = load ptr, ptr %4, align 8
  %116 = load i32, ptr %11, align 4
  %117 = call ptr @proto_tree_add_item(ptr noundef %113, i32 noundef %114, ptr noundef %115, i32 noundef %116, i32 noundef 1, i32 noundef 0)
  %118 = load i32, ptr %11, align 4
  %119 = add i32 %118, 1
  store i32 %119, ptr %11, align 4
  %120 = load ptr, ptr %9, align 8
  %121 = load i32, ptr @hf_uftp_announce_status_time, align 4
  %122 = load ptr, ptr %4, align 8
  %123 = load i32, ptr %11, align 4
  %124 = call ptr @proto_tree_add_item(ptr noundef %120, i32 noundef %121, ptr noundef %122, i32 noundef %123, i32 noundef 1, i32 noundef 0)
  %125 = load i32, ptr %11, align 4
  %126 = add i32 %125, 1
  store i32 %126, ptr %11, align 4
  %127 = load ptr, ptr %9, align 8
  %128 = load i32, ptr @hf_uftp_announce_mtu, align 4
  %129 = load ptr, ptr %4, align 8
  %130 = load i32, ptr %11, align 4
  %131 = call ptr @proto_tree_add_item(ptr noundef %127, i32 noundef %128, ptr noundef %129, i32 noundef %130, i32 noundef 2, i32 noundef 0)
  %132 = load i32, ptr %11, align 4
  %133 = add i32 %132, 2
  store i32 %133, ptr %11, align 4
  %134 = load ptr, ptr %9, align 8
  %135 = load i32, ptr @hf_uftp_announce_privatemcast, align 4
  %136 = load ptr, ptr %4, align 8
  %137 = load i32, ptr %11, align 4
  %138 = call ptr @proto_tree_add_item(ptr noundef %134, i32 noundef %135, ptr noundef %136, i32 noundef %137, i32 noundef 4, i32 noundef 0)
  %139 = load i32, ptr %11, align 4
  %140 = add i32 %139, 4
  store i32 %140, ptr %11, align 4
  %141 = load ptr, ptr %9, align 8
  %142 = load i32, ptr @hf_uftp_announce_client_auth, align 4
  %143 = load ptr, ptr %4, align 8
  %144 = load i32, ptr %11, align 4
  %145 = call ptr @proto_tree_add_item(ptr noundef %141, i32 noundef %142, ptr noundef %143, i32 noundef %144, i32 noundef 1, i32 noundef 0)
  %146 = load i32, ptr %11, align 4
  %147 = add i32 %146, 1
  store i32 %147, ptr %11, align 4
  %148 = load ptr, ptr %9, align 8
  %149 = load i32, ptr @hf_uftp_announce_sigtype, align 4
  %150 = load ptr, ptr %4, align 8
  %151 = load i32, ptr %11, align 4
  %152 = call ptr @proto_tree_add_item(ptr noundef %148, i32 noundef %149, ptr noundef %150, i32 noundef %151, i32 noundef 1, i32 noundef 0)
  %153 = load i32, ptr %11, align 4
  %154 = add i32 %153, 1
  store i32 %154, ptr %11, align 4
  %155 = load ptr, ptr %9, align 8
  %156 = load i32, ptr @hf_uftp_announce_hashtype, align 4
  %157 = load ptr, ptr %4, align 8
  %158 = load i32, ptr %11, align 4
  %159 = call ptr @proto_tree_add_item(ptr noundef %155, i32 noundef %156, ptr noundef %157, i32 noundef %158, i32 noundef 1, i32 noundef 0)
  %160 = load i32, ptr %11, align 4
  %161 = add i32 %160, 1
  store i32 %161, ptr %11, align 4
  %162 = load ptr, ptr %9, align 8
  %163 = load i32, ptr @hf_uftp_announce_keytype, align 4
  %164 = load ptr, ptr %4, align 8
  %165 = load i32, ptr %11, align 4
  %166 = call ptr @proto_tree_add_item(ptr noundef %162, i32 noundef %163, ptr noundef %164, i32 noundef %165, i32 noundef 1, i32 noundef 0)
  %167 = load i32, ptr %11, align 4
  %168 = add i32 %167, 1
  store i32 %168, ptr %11, align 4
  %169 = load ptr, ptr %9, align 8
  %170 = load i32, ptr @hf_uftp_announce_keylen, align 4
  %171 = load ptr, ptr %4, align 8
  %172 = load i32, ptr %11, align 4
  %173 = call ptr @proto_tree_add_item(ptr noundef %169, i32 noundef %170, ptr noundef %171, i32 noundef %172, i32 noundef 2, i32 noundef 0)
  %174 = load i32, ptr %11, align 4
  %175 = add i32 %174, 2
  store i32 %175, ptr %11, align 4
  %176 = load ptr, ptr %9, align 8
  %177 = load i32, ptr @hf_uftp_announce_reserved, align 4
  %178 = load ptr, ptr %4, align 8
  %179 = load i32, ptr %11, align 4
  %180 = call ptr @proto_tree_add_item(ptr noundef %176, i32 noundef %177, ptr noundef %178, i32 noundef %179, i32 noundef 2, i32 noundef 0)
  %181 = load i32, ptr %11, align 4
  %182 = add i32 %181, 2
  store i32 %182, ptr %11, align 4
  %183 = load ptr, ptr %9, align 8
  %184 = load i32, ptr @hf_uftp_announce_keyexp, align 4
  %185 = load ptr, ptr %4, align 8
  %186 = load i32, ptr %11, align 4
  %187 = call ptr @proto_tree_add_item(ptr noundef %183, i32 noundef %184, ptr noundef %185, i32 noundef %186, i32 noundef 4, i32 noundef 0)
  %188 = load i32, ptr %11, align 4
  %189 = add i32 %188, 4
  store i32 %189, ptr %11, align 4
  %190 = load ptr, ptr %9, align 8
  %191 = load i32, ptr @hf_uftp_announce_rand1, align 4
  %192 = load ptr, ptr %4, align 8
  %193 = load i32, ptr %11, align 4
  %194 = call ptr @proto_tree_add_item(ptr noundef %190, i32 noundef %191, ptr noundef %192, i32 noundef %193, i32 noundef 32, i32 noundef 0)
  %195 = load i32, ptr %11, align 4
  %196 = add i32 %195, 32
  store i32 %196, ptr %11, align 4
  %197 = load i16, ptr %13, align 2
  %198 = zext i16 %197 to i32
  %199 = icmp sgt i32 %198, 0
  br i1 %199, label %200, label %212

200:                                              ; preds = %54
  %201 = load ptr, ptr %9, align 8
  %202 = load i32, ptr @hf_uftp_announce_keymod, align 4
  %203 = load ptr, ptr %4, align 8
  %204 = load i32, ptr %11, align 4
  %205 = load i16, ptr %13, align 2
  %206 = zext i16 %205 to i32
  %207 = call ptr @proto_tree_add_item(ptr noundef %201, i32 noundef %202, ptr noundef %203, i32 noundef %204, i32 noundef %206, i32 noundef 0)
  %208 = load i16, ptr %13, align 2
  %209 = zext i16 %208 to i32
  %210 = load i32, ptr %11, align 4
  %211 = add i32 %210, %209
  store i32 %211, ptr %11, align 4
  br label %212

212:                                              ; preds = %200, %54
  %213 = load i16, ptr %12, align 2
  %214 = zext i16 %213 to i32
  %215 = icmp sgt i32 %214, 0
  br i1 %215, label %216, label %228

216:                                              ; preds = %212
  %217 = load ptr, ptr %9, align 8
  %218 = load i32, ptr @hf_uftp_destlist, align 4
  %219 = load ptr, ptr %4, align 8
  %220 = load i32, ptr %11, align 4
  %221 = load i16, ptr %12, align 2
  %222 = zext i16 %221 to i32
  %223 = mul i32 %222, 4
  %224 = call ptr @proto_tree_add_item(ptr noundef %217, i32 noundef %218, ptr noundef %219, i32 noundef %220, i32 noundef %223, i32 noundef 0)
  store ptr %224, ptr %8, align 8
  %225 = load ptr, ptr %8, align 8
  %226 = load i32, ptr @ett_uftp_destlist, align 4
  %227 = call ptr @proto_item_add_subtree(ptr noundef %225, i32 noundef %226)
  store ptr %227, ptr %10, align 8
  br label %228

228:                                              ; preds = %216, %212
  store i16 0, ptr %14, align 2
  br label %229

229:                                              ; preds = %243, %228
  %230 = load i16, ptr %14, align 2
  %231 = zext i16 %230 to i32
  %232 = load i16, ptr %12, align 2
  %233 = zext i16 %232 to i32
  %234 = icmp slt i32 %231, %233
  br i1 %234, label %235, label %246

235:                                              ; preds = %229
  %236 = load ptr, ptr %10, align 8
  %237 = load i32, ptr @hf_uftp_dest, align 4
  %238 = load ptr, ptr %4, align 8
  %239 = load i32, ptr %11, align 4
  %240 = call ptr @proto_tree_add_item(ptr noundef %236, i32 noundef %237, ptr noundef %238, i32 noundef %239, i32 noundef 4, i32 noundef 0)
  %241 = load i32, ptr %11, align 4
  %242 = add i32 %241, 4
  store i32 %242, ptr %11, align 4
  br label %243

243:                                              ; preds = %235
  %244 = load i16, ptr %14, align 2
  %245 = add i16 %244, 1
  store i16 %245, ptr %14, align 2
  br label %229, !llvm.loop !6

246:                                              ; preds = %229
  store i32 0, ptr %15, align 4
  br label %247

247:                                              ; preds = %246, %42, %19
  call void @llvm.lifetime.end.p0(i64 2, ptr %14) #3
  call void @llvm.lifetime.end.p0(i64 2, ptr %13) #3
  call void @llvm.lifetime.end.p0(i64 2, ptr %12) #3
  call void @llvm.lifetime.end.p0(i64 4, ptr %11) #3
  call void @llvm.lifetime.end.p0(i64 8, ptr %10) #3
  call void @llvm.lifetime.end.p0(i64 8, ptr %9) #3
  call void @llvm.lifetime.end.p0(i64 8, ptr %8) #3
  call void @llvm.lifetime.end.p0(i64 8, ptr %7) #3
  %248 = load i32, ptr %15, align 4
  switch i32 %248, label %250 [
    i32 0, label %249
    i32 1, label %249
  ]

249:                                              ; preds = %247, %247
  ret void

250:                                              ; preds = %247
  unreachable
}