; Function Attrs: null_pointer_is_valid sspstrong uwtable
define internal fastcc void @dissect_uftp_announce(ptr noundef %0, ptr noundef %1, ptr noundef %2) unnamed_addr #0 {
  %4 = tail call i32 @tvb_reported_length(ptr noundef %0)
  %5 = icmp ult i32 %4, 64
  br i1 %5, label %6, label %9

6:                                                ; preds = %3
  %7 = tail call i32 @tvb_reported_length(ptr noundef %0)
  %8 = tail call ptr (ptr, ptr, ptr, ptr, i32, i32, ptr, ...) @proto_tree_add_expert_format(ptr noundef %2, ptr noundef %1, ptr noundef nonnull @ei_uftp_length_invalid, ptr noundef %0, i32 noundef 0, i32 noundef -1, ptr noundef nonnull @.str.289, i32 noundef %7)
  br label %.loopexit

9:                                                ; preds = %3
  %10 = tail call zeroext i16 @tvb_get_ntohs(ptr noundef %0, i32 noundef 2)
  %11 = tail call zeroext i16 @tvb_get_ntohs(ptr noundef %0, i32 noundef 24)
  %12 = tail call i32 @tvb_reported_length(ptr noundef %0)
  %13 = zext i16 %11 to i32
  %14 = add nuw nsw i32 %13, 64
  %15 = zext i16 %10 to i32
  %16 = shl nuw nsw i32 %15, 2
  %17 = add nuw nsw i32 %14, %16
  %18 = icmp slt i32 %12, %17
  br i1 %18, label %19, label %22

19:                                               ; preds = %9
  %20 = tail call i32 @tvb_reported_length(ptr noundef %0)
  %21 = tail call ptr (ptr, ptr, ptr, ptr, i32, i32, ptr, ...) @proto_tree_add_expert_format(ptr noundef %2, ptr noundef %1, ptr noundef nonnull @ei_uftp_length_invalid, ptr noundef %0, i32 noundef 0, i32 noundef -1, ptr noundef nonnull @.str.290, i32 noundef %20, i32 noundef %13, i32 noundef %15)
  br label %.loopexit

22:                                               ; preds = %9
  %23 = load i32, ptr @hf_uftp_announce, align 4
  %24 = tail call ptr @proto_tree_add_item(ptr noundef %2, i32 noundef %23, ptr noundef %0, i32 noundef 0, i32 noundef -1, i32 noundef 0)
  %25 = load i32, ptr @ett_uftp_announce, align 4
  %26 = tail call ptr @proto_item_add_subtree(ptr noundef %24, i32 noundef %25)
  %27 = load i32, ptr @hf_uftp_announce_func, align 4
  %28 = tail call ptr @proto_tree_add_item(ptr noundef %26, i32 noundef %27, ptr noundef %0, i32 noundef 0, i32 noundef 1, i32 noundef 0)
  %29 = load i32, ptr @hf_uftp_announce_flags, align 4
  %30 = load i32, ptr @ett_uftp_announce_flags, align 4
  %31 = tail call ptr @proto_tree_add_bitmask(ptr noundef %26, ptr noundef %0, i32 noundef 1, i32 noundef %29, i32 noundef %30, ptr noundef nonnull @announce_flags, i32 noundef 0)
  %32 = load i32, ptr @hf_uftp_announce_destcount, align 4
  %33 = tail call ptr @proto_tree_add_item(ptr noundef %26, i32 noundef %32, ptr noundef %0, i32 noundef 2, i32 noundef 2, i32 noundef 0)
  %34 = load i32, ptr @hf_uftp_announce_announce_int, align 4
  %35 = tail call ptr @proto_tree_add_item(ptr noundef %26, i32 noundef %34, ptr noundef %0, i32 noundef 4, i32 noundef 2, i32 noundef 0)
  %36 = load i32, ptr @hf_uftp_announce_status_int, align 4
  %37 = tail call ptr @proto_tree_add_item(ptr noundef %26, i32 noundef %36, ptr noundef %0, i32 noundef 6, i32 noundef 2, i32 noundef 0)
  %38 = load i32, ptr @hf_uftp_announce_register_int, align 4
  %39 = tail call ptr @proto_tree_add_item(ptr noundef %26, i32 noundef %38, ptr noundef %0, i32 noundef 8, i32 noundef 2, i32 noundef 0)
  %40 = load i32, ptr @hf_uftp_announce_done_int, align 4
  %41 = tail call ptr @proto_tree_add_item(ptr noundef %26, i32 noundef %40, ptr noundef %0, i32 noundef 10, i32 noundef 2, i32 noundef 0)
  %42 = load i32, ptr @hf_uftp_announce_announce_time, align 4
  %43 = tail call ptr @proto_tree_add_item(ptr noundef %26, i32 noundef %42, ptr noundef %0, i32 noundef 12, i32 noundef 1, i32 noundef 0)
  %44 = load i32, ptr @hf_uftp_announce_status_time, align 4
  %45 = tail call ptr @proto_tree_add_item(ptr noundef %26, i32 noundef %44, ptr noundef %0, i32 noundef 13, i32 noundef 1, i32 noundef 0)
  %46 = load i32, ptr @hf_uftp_announce_mtu, align 4
  %47 = tail call ptr @proto_tree_add_item(ptr noundef %26, i32 noundef %46, ptr noundef %0, i32 noundef 14, i32 noundef 2, i32 noundef 0)
  %48 = load i32, ptr @hf_uftp_announce_privatemcast, align 4
  %49 = tail call ptr @proto_tree_add_item(ptr noundef %26, i32 noundef %48, ptr noundef %0, i32 noundef 16, i32 noundef 4, i32 noundef 0)
  %50 = load i32, ptr @hf_uftp_announce_client_auth, align 4
  %51 = tail call ptr @proto_tree_add_item(ptr noundef %26, i32 noundef %50, ptr noundef %0, i32 noundef 20, i32 noundef 1, i32 noundef 0)
  %52 = load i32, ptr @hf_uftp_announce_sigtype, align 4
  %53 = tail call ptr @proto_tree_add_item(ptr noundef %26, i32 noundef %52, ptr noundef %0, i32 noundef 21, i32 noundef 1, i32 noundef 0)
  %54 = load i32, ptr @hf_uftp_announce_hashtype, align 4
  %55 = tail call ptr @proto_tree_add_item(ptr noundef %26, i32 noundef %54, ptr noundef %0, i32 noundef 22, i32 noundef 1, i32 noundef 0)
  %56 = load i32, ptr @hf_uftp_announce_keytype, align 4
  %57 = tail call ptr @proto_tree_add_item(ptr noundef %26, i32 noundef %56, ptr noundef %0, i32 noundef 23, i32 noundef 1, i32 noundef 0)
  %58 = load i32, ptr @hf_uftp_announce_keylen, align 4
  %59 = tail call ptr @proto_tree_add_item(ptr noundef %26, i32 noundef %58, ptr noundef %0, i32 noundef 24, i32 noundef 2, i32 noundef 0)
  %60 = load i32, ptr @hf_uftp_announce_reserved, align 4
  %61 = tail call ptr @proto_tree_add_item(ptr noundef %26, i32 noundef %60, ptr noundef %0, i32 noundef 26, i32 noundef 2, i32 noundef 0)
  %62 = load i32, ptr @hf_uftp_announce_keyexp, align 4
  %63 = tail call ptr @proto_tree_add_item(ptr noundef %26, i32 noundef %62, ptr noundef %0, i32 noundef 28, i32 noundef 4, i32 noundef 0)
  %64 = load i32, ptr @hf_uftp_announce_rand1, align 4
  %65 = tail call ptr @proto_tree_add_item(ptr noundef %26, i32 noundef %64, ptr noundef %0, i32 noundef 32, i32 noundef 32, i32 noundef 0)
  %.not = icmp eq i16 %11, 0
  br i1 %.not, label %69, label %66

66:                                               ; preds = %22
  %67 = load i32, ptr @hf_uftp_announce_keymod, align 4
  %68 = tail call ptr @proto_tree_add_item(ptr noundef %26, i32 noundef %67, ptr noundef %0, i32 noundef 64, i32 noundef %13, i32 noundef 0)
  br label %69

69:                                               ; preds = %66, %22
  %.0117 = phi i32 [ %14, %66 ], [ 64, %22 ]
  %.not120 = icmp eq i16 %10, 0
  br i1 %.not120, label %.loopexit, label %.lr.ph.preheader

.lr.ph.preheader:                                 ; preds = %69
  %70 = load i32, ptr @hf_uftp_destlist, align 4
  %71 = tail call ptr @proto_tree_add_item(ptr noundef %26, i32 noundef %70, ptr noundef %0, i32 noundef %.0117, i32 noundef %16, i32 noundef 0)
  %72 = load i32, ptr @ett_uftp_destlist, align 4
  %73 = tail call ptr @proto_item_add_subtree(ptr noundef %71, i32 noundef %72)
  br label %.lr.ph

.lr.ph:                                           ; preds = %.lr.ph.preheader, %.lr.ph
  %.0122 = phi i16 [ %77, %.lr.ph ], [ 0, %.lr.ph.preheader ]
  %.1121 = phi i32 [ %76, %.lr.ph ], [ %.0117, %.lr.ph.preheader ]
  %74 = load i32, ptr @hf_uftp_dest, align 4
  %75 = tail call ptr @proto_tree_add_item(ptr noundef %73, i32 noundef %74, ptr noundef %0, i32 noundef %.1121, i32 noundef 4, i32 noundef 0)
  %76 = add nuw nsw i32 %.1121, 4
  %77 = add nuw i16 %.0122, 1
  %exitcond.not = icmp eq i16 %77, %10
  br i1 %exitcond.not, label %.loopexit, label %.lr.ph, !llvm.loop !6

.loopexit:                                        ; preds = %.lr.ph, %69, %19, %6
  ret void
}